target datalayout = "e-m:e-p270:32:32-p271:32:32-p272:64:64-i64:64-i128:128-f80:128-n8:16:32:64-S128"
target triple = "x86_64-unknown-linux-gnu"

%"class.icu_75::ConfusabledataBuilder" = type <{ ptr, ptr, ptr, ptr, ptr, ptr, ptr, ptr, ptr, ptr, i32, [4 x i8] }>

@_ZN6icu_7513SPUStringPoolC1ER10UErrorCode = unnamed_addr alias void (ptr, ptr), ptr @_ZN6icu_7513SPUStringPoolC2ER10UErrorCode

; Function Attrs: mustprogress nounwind uwtable
define internal noundef signext i8 @_ZL9U_FAILURE10UErrorCode(i32 noundef %code) #1 {
entry:
  %code.addr = alloca i32, align 4
  store i32 %code, ptr %code.addr, align 4
  %0 = load i32, ptr %code.addr, align 4
  %cmp = icmp sgt i32 %0, 0
  %conv = zext i1 %cmp to i8
  ret i8 %conv
}

; Function Attrs: mustprogress uwtable
define void @_ZN6icu_7521ConfusabledataBuilderC2EPNS_9SpoofImplER10UErrorCode(ptr noundef nonnull align 8 dereferenceable(84) %this, ptr noundef %spImpl, ptr noundef nonnull align 4 dereferenceable(4) %status) unnamed_addr #0 align 2 personality ptr @__gxx_personality_v0 {
entry:
  %this.addr = alloca ptr, align 8
  %spImpl.addr = alloca ptr, align 8
  %status.addr = alloca ptr, align 8
  %saved-rvalue = alloca ptr, align 8
  %cleanup.cond = alloca i1, align 1
  %exn.slot = alloca ptr, align 8
  %ehselector.slot = alloca i32, align 4
  %saved-rvalue12 = alloca ptr, align 8
  %cleanup.cond13 = alloca i1, align 1
  %saved-rvalue28 = alloca ptr, align 8
  %cleanup.cond29 = alloca i1, align 1
  %saved-rvalue44 = alloca ptr, align 8
  %cleanup.cond45 = alloca i1, align 1
  store ptr %this, ptr %this.addr, align 8
  store ptr %spImpl, ptr %spImpl.addr, align 8
  store ptr %status, ptr %status.addr, align 8
  %this1 = load ptr, ptr %this.addr, align 8
  %fSpoofImpl = getelementptr inbounds %"class.icu_75::ConfusabledataBuilder", ptr %this1, i32 0, i32 0
  %0 = load ptr, ptr %spImpl.addr, align 8
  store ptr %0, ptr %fSpoofImpl, align 8
  %fInput = getelementptr inbounds %"class.icu_75::ConfusabledataBuilder", ptr %this1, i32 0, i32 1
  store ptr null, ptr %fInput, align 8
  %fTable = getelementptr inbounds %"class.icu_75::ConfusabledataBuilder", ptr %this1, i32 0, i32 2
  store ptr null, ptr %fTable, align 8
  %fKeySet = getelementptr inbounds %"class.icu_75::ConfusabledataBuilder", ptr %this1, i32 0, i32 3
  store ptr null, ptr %fKeySet, align 8
  %fKeyVec = getelementptr inbounds %"class.icu_75::ConfusabledataBuilder", ptr %this1, i32 0, i32 4
  store ptr null, ptr %fKeyVec, align 8
  %fValueVec = getelementptr inbounds %"class.icu_75::ConfusabledataBuilder", ptr %this1, i32 0, i32 5
  store ptr null, ptr %fValueVec, align 8
  %fStringTable = getelementptr inbounds %"class.icu_75::ConfusabledataBuilder", ptr %this1, i32 0, i32 6
  store ptr null, ptr %fStringTable, align 8
  %stringPool = getelementptr inbounds %"class.icu_75::ConfusabledataBuilder", ptr %this1, i32 0, i32 7
  store ptr null, ptr %stringPool, align 8
  %fParseLine = getelementptr inbounds %"class.icu_75::ConfusabledataBuilder", ptr %this1, i32 0, i32 8
  store ptr null, ptr %fParseLine, align 8
  %fParseHexNum = getelementptr inbounds %"class.icu_75::ConfusabledataBuilder", ptr %this1, i32 0, i32 9
  store ptr null, ptr %fParseHexNum, align 8
  %fLineNum = getelementptr inbounds %"class.icu_75::ConfusabledataBuilder", ptr %this1, i32 0, i32 10
  store i32 0, ptr %fLineNum, align 8
  %1 = load ptr, ptr %status.addr, align 8
  %2 = load i32, ptr %1, align 4
  %call = call noundef signext i8 @_ZL9U_FAILURE10UErrorCode(i32 noundef %2)
  %tobool = icmp ne i8 %call, 0
  br i1 %tobool, label %if.then, label %if.end

if.then:                                          ; preds = %entry
  br label %if.end56

if.end:                                           ; preds = %entry
  %3 = load ptr, ptr %status.addr, align 8
  %call2 = call ptr @uhash_open_75(ptr noundef @uhash_hashLong_75, ptr noundef @uhash_compareLong_75, ptr noundef null, ptr noundef %3)
  %fTable3 = getelementptr inbounds %"class.icu_75::ConfusabledataBuilder", ptr %this1, i32 0, i32 2
  store ptr %call2, ptr %fTable3, align 8
  %call4 = call noundef ptr @_ZN6icu_757UMemorynwEm(i64 noundef 200) #6
  %new.isnull = icmp eq ptr %call4, null
  store i1 false, ptr %cleanup.cond, align 1
  br i1 %new.isnull, label %new.cont, label %new.notnull

new.notnull:                                      ; preds = %if.end
  store ptr %call4, ptr %saved-rvalue, align 8
  store i1 true, ptr %cleanup.cond, align 1
  invoke void @_ZN6icu_7510UnicodeSetC1Ev(ptr noundef nonnull align 8 dereferenceable(200) %call4)
          to label %invoke.cont unwind label %lpad

invoke.cont:                                      ; preds = %new.notnull
  br label %new.cont

new.cont:                                         ; preds = %invoke.cont, %if.end
  %4 = phi ptr [ %call4, %invoke.cont ], [ null, %if.end ]
  %fKeySet5 = getelementptr inbounds %"class.icu_75::ConfusabledataBuilder", ptr %this1, i32 0, i32 3
  store ptr %4, ptr %fKeySet5, align 8
  %fKeySet6 = getelementptr inbounds %"class.icu_75::ConfusabledataBuilder", ptr %this1, i32 0, i32 3
  %5 = load ptr, ptr %fKeySet6, align 8
  %cmp = icmp eq ptr %5, null
  br i1 %cmp, label %if.then7, label %if.end8

if.then7:                                         ; preds = %new.cont
  %6 = load ptr, ptr %status.addr, align 8
  store i32 7, ptr %6, align 4
  br label %if.end56

lpad:                                             ; preds = %new.notnull
  %7 = landingpad { ptr, i32 }
          cleanup
  %8 = extractvalue { ptr, i32 } %7, 0
  store ptr %8, ptr %exn.slot, align 8
  %9 = extractvalue { ptr, i32 } %7, 1
  store i32 %9, ptr %ehselector.slot, align 4
  %cleanup.is_active = load i1, ptr %cleanup.cond, align 1
  br i1 %cleanup.is_active, label %cleanup.action, label %cleanup.done

cleanup.action:                                   ; preds = %lpad
  %10 = load ptr, ptr %saved-rvalue, align 8
  call void @_ZN6icu_757UMemorydlEPv(ptr noundef %10) #6
  br label %cleanup.done

cleanup.done:                                     ; preds = %cleanup.action, %lpad
  br label %eh.resume

if.end8:                                          ; preds = %new.cont
  %call9 = call noundef ptr @_ZN6icu_757UMemorynwEm(i64 noundef 40) #6
  %new.isnull10 = icmp eq ptr %call9, null
  store i1 false, ptr %cleanup.cond13, align 1
  br i1 %new.isnull10, label %new.cont19, label %new.notnull11

new.notnull11:                                    ; preds = %if.end8
  store ptr %call9, ptr %saved-rvalue12, align 8
  store i1 true, ptr %cleanup.cond13, align 1
  %11 = load ptr, ptr %status.addr, align 8
  invoke void @_ZN6icu_757UVectorC1ER10UErrorCode(ptr noundef nonnull align 8 dereferenceable(40) %call9, ptr noundef nonnull align 4 dereferenceable(4) %11)
          to label %invoke.cont15 unwind label %lpad14

invoke.cont15:                                    ; preds = %new.notnull11
  br label %new.cont19

new.cont19:                                       ; preds = %invoke.cont15, %if.end8
  %12 = phi ptr [ %call9, %invoke.cont15 ], [ null, %if.end8 ]
  %fKeyVec20 = getelementptr inbounds %"class.icu_75::ConfusabledataBuilder", ptr %this1, i32 0, i32 4
  store ptr %12, ptr %fKeyVec20, align 8
  %fKeyVec21 = getelementptr inbounds %"class.icu_75::ConfusabledataBuilder", ptr %this1, i32 0, i32 4
  %13 = load ptr, ptr %fKeyVec21, align 8
  %cmp22 = icmp eq ptr %13, null
  br i1 %cmp22, label %if.then23, label %if.end24

if.then23:                                        ; preds = %new.cont19
  %14 = load ptr, ptr %status.addr, align 8
  store i32 7, ptr %14, align 4
  br label %if.end56

lpad14:                                           ; preds = %new.notnull11
  %15 = landingpad { ptr, i32 }
          cleanup
  %16 = extractvalue { ptr, i32 } %15, 0
  store ptr %16, ptr %exn.slot, align 8
  %17 = extractvalue { ptr, i32 } %15, 1
  store i32 %17, ptr %ehselector.slot, align 4
  %cleanup.is_active16 = load i1, ptr %cleanup.cond13, align 1
  br i1 %cleanup.is_active16, label %cleanup.action17, label %cleanup.done18

cleanup.action17:                                 ; preds = %lpad14
  %18 = load ptr, ptr %saved-rvalue12, align 8
  call void @_ZN6icu_757UMemorydlEPv(ptr noundef %18) #6
  br label %cleanup.done18

cleanup.done18:                                   ; preds = %cleanup.action17, %lpad14
  br label %eh.resume

if.end24:                                         ; preds = %new.cont19
  %call25 = call noundef ptr @_ZN6icu_757UMemorynwEm(i64 noundef 40) #6
  %new.isnull26 = icmp eq ptr %call25, null
  store i1 false, ptr %cleanup.cond29, align 1
  br i1 %new.isnull26, label %new.cont35, label %new.notnull27

new.notnull27:                                    ; preds = %if.end24
  store ptr %call25, ptr %saved-rvalue28, align 8
  store i1 true, ptr %cleanup.cond29, align 1
  %19 = load ptr, ptr %status.addr, align 8
  invoke void @_ZN6icu_757UVectorC1ER10UErrorCode(ptr noundef nonnull align 8 dereferenceable(40) %call25, ptr noundef nonnull align 4 dereferenceable(4) %19)
          to label %invoke.cont31 unwind label %lpad30

invoke.cont31:                                    ; preds = %new.notnull27
  br label %new.cont35

new.cont35:                                       ; preds = %invoke.cont31, %if.end24
  %20 = phi ptr [ %call25, %invoke.cont31 ], [ null, %if.end24 ]
  %fValueVec36 = getelementptr inbounds %"class.icu_75::ConfusabledataBuilder", ptr %this1, i32 0, i32 5
  store ptr %20, ptr %fValueVec36, align 8
  %fValueVec37 = getelementptr inbounds %"class.icu_75::ConfusabledataBuilder", ptr %this1, i32 0, i32 5
  %21 = load ptr, ptr %fValueVec37, align 8
  %cmp38 = icmp eq ptr %21, null
  br i1 %cmp38, label %if.then39, label %if.end40

if.then39:                                        ; preds = %new.cont35
  %22 = load ptr, ptr %status.addr, align 8
  store i32 7, ptr %22, align 4
  br label %if.end56

lpad30:                                           ; preds = %new.notnull27
  %23 = landingpad { ptr, i32 }
          cleanup
  %24 = extractvalue { ptr, i32 } %23, 0
  store ptr %24, ptr %exn.slot, align 8
  %25 = extractvalue { ptr, i32 } %23, 1
  store i32 %25, ptr %ehselector.slot, align 4
  %cleanup.is_active32 = load i1, ptr %cleanup.cond29, align 1
  br i1 %cleanup.is_active32, label %cleanup.action33, label %cleanup.done34

cleanup.action33:                                 ; preds = %lpad30
  %26 = load ptr, ptr %saved-rvalue28, align 8
  call void @_ZN6icu_757UMemorydlEPv(ptr noundef %26) #6
  br label %cleanup.done34

cleanup.done34:                                   ; preds = %cleanup.action33, %lpad30
  br label %eh.resume

if.end40:                                         ; preds = %new.cont35
  %call41 = call noundef ptr @_ZN6icu_757UMemorynwEm(i64 noundef 16) #6
  %new.isnull42 = icmp eq ptr %call41, null
  store i1 false, ptr %cleanup.cond45, align 1
  br i1 %new.isnull42, label %new.cont51, label %new.notnull43

new.notnull43:                                    ; preds = %if.end40
  store ptr %call41, ptr %saved-rvalue44, align 8
  store i1 true, ptr %cleanup.cond45, align 1
  %27 = load ptr, ptr %status.addr, align 8
  invoke void @_ZN6icu_7513SPUStringPoolC1ER10UErrorCode(ptr noundef nonnull align 8 dereferenceable(16) %call41, ptr noundef nonnull align 4 dereferenceable(4) %27)
          to label %invoke.cont47 unwind label %lpad46

invoke.cont47:                                    ; preds = %new.notnull43
  br label %new.cont51

new.cont51:                                       ; preds = %invoke.cont47, %if.end40
  %28 = phi ptr [ %call41, %invoke.cont47 ], [ null, %if.end40 ]
  %stringPool52 = getelementptr inbounds %"class.icu_75::ConfusabledataBuilder", ptr %this1, i32 0, i32 7
  store ptr %28, ptr %stringPool52, align 8
  %stringPool53 = getelementptr inbounds %"class.icu_75::ConfusabledataBuilder", ptr %this1, i32 0, i32 7
  %29 = load ptr, ptr %stringPool53, align 8
  %cmp54 = icmp eq ptr %29, null
  br i1 %cmp54, label %if.then55, label %if.end56

if.then55:                                        ; preds = %new.cont51
  %30 = load ptr, ptr %status.addr, align 8
  store i32 7, ptr %30, align 4
  br label %if.end56

lpad46:                                           ; preds = %new.notnull43
  %31 = landingpad { ptr, i32 }
          cleanup
  %32 = extractvalue { ptr, i32 } %31, 0
  store ptr %32, ptr %exn.slot, align 8
  %33 = extractvalue { ptr, i32 } %31, 1
  store i32 %33, ptr %ehselector.slot, align 4
  %cleanup.is_active48 = load i1, ptr %cleanup.cond45, align 1
  br i1 %cleanup.is_active48, label %cleanup.action49, label %cleanup.done50

cleanup.action49:                                 ; preds = %lpad46
  %34 = load ptr, ptr %saved-rvalue44, align 8
  call void @_ZN6icu_757UMemorydlEPv(ptr noundef %34) #6
  br label %cleanup.done50

cleanup.done50:                                   ; preds = %cleanup.action49, %lpad46
  br label %eh.resume

if.end56:                                         ; preds = %if.then55, %new.cont51, %if.then39, %if.then23, %if.then7, %if.then
  ret void

eh.resume:                                        ; preds = %cleanup.done50, %cleanup.done34, %cleanup.done18, %cleanup.done
  %exn = load ptr, ptr %exn.slot, align 8
  %sel = load i32, ptr %ehselector.slot, align 4
  %lpad.val = insertvalue { ptr, i32 } poison, ptr %exn, 0
  %lpad.val57 = insertvalue { ptr, i32 } %lpad.val, i32 %sel, 1
  resume { ptr, i32 } %lpad.val57
}