; Function Attrs: mustprogress uwtable
define void @_ZN6icu_7521ConfusabledataBuilderC2EPNS_9SpoofImplER10UErrorCode(ptr nocapture noundef nonnull writeonly align 8 dereferenceable(84) %this, ptr noundef %spImpl, ptr noundef nonnull align 4 dereferenceable(4) %status) unnamed_addr #2 align 2 personality ptr @__gxx_personality_v0 {
entry:
  store ptr %spImpl, ptr %this, align 8
  %fInput = getelementptr inbounds i8, ptr %this, i64 8
  %fKeySet = getelementptr inbounds i8, ptr %this, i64 24
  %fKeyVec = getelementptr inbounds i8, ptr %this, i64 32
  %fValueVec = getelementptr inbounds i8, ptr %this, i64 40
  %stringPool = getelementptr inbounds i8, ptr %this, i64 56
  tail call void @llvm.memset.p0.i64(ptr noundef nonnull align 8 dereferenceable(76) %fInput, i8 0, i64 76, i1 false)
  %0 = load i32, ptr %status, align 4
  %cmp.i = icmp slt i32 %0, 1
  br i1 %cmp.i, label %if.end, label %if.end56

if.end:                                           ; preds = %entry
  %fTable = getelementptr inbounds i8, ptr %this, i64 16
  %call2 = tail call ptr @uhash_open_75(ptr noundef nonnull @uhash_hashLong_75, ptr noundef nonnull @uhash_compareLong_75, ptr noundef null, ptr noundef nonnull %status)
  store ptr %call2, ptr %fTable, align 8
  %call4 = tail call noundef ptr @_ZN6icu_757UMemorynwEm(i64 noundef 200) #10
  %new.isnull = icmp eq ptr %call4, null
  br i1 %new.isnull, label %if.then7, label %new.notnull

new.notnull:                                      ; preds = %if.end
  invoke void @_ZN6icu_7510UnicodeSetC1Ev(ptr noundef nonnull align 8 dereferenceable(200) %call4)
          to label %if.end8 unwind label %lpad

if.then7:                                         ; preds = %if.end
  store ptr null, ptr %fKeySet, align 8
  store i32 7, ptr %status, align 4
  br label %if.end56

lpad:                                             ; preds = %new.notnull
  %1 = landingpad { ptr, i32 }
          cleanup
  br label %eh.resume

if.end8:                                          ; preds = %new.notnull
  store ptr %call4, ptr %fKeySet, align 8
  %call9 = tail call noundef ptr @_ZN6icu_757UMemorynwEm(i64 noundef 40) #10
  %new.isnull10 = icmp eq ptr %call9, null
  br i1 %new.isnull10, label %if.then23, label %new.notnull11

new.notnull11:                                    ; preds = %if.end8
  invoke void @_ZN6icu_757UVectorC1ER10UErrorCode(ptr noundef nonnull align 8 dereferenceable(40) %call9, ptr noundef nonnull align 4 dereferenceable(4) %status)
          to label %if.end24 unwind label %lpad14

if.then23:                                        ; preds = %if.end8
  store ptr null, ptr %fKeyVec, align 8
  store i32 7, ptr %status, align 4
  br label %if.end56

lpad14:                                           ; preds = %new.notnull11
  %2 = landingpad { ptr, i32 }
          cleanup
  br label %eh.resume

if.end24:                                         ; preds = %new.notnull11
  store ptr %call9, ptr %fKeyVec, align 8
  %call25 = tail call noundef ptr @_ZN6icu_757UMemorynwEm(i64 noundef 40) #10
  %new.isnull26 = icmp eq ptr %call25, null
  br i1 %new.isnull26, label %if.then39, label %new.notnull27

new.notnull27:                                    ; preds = %if.end24
  invoke void @_ZN6icu_757UVectorC1ER10UErrorCode(ptr noundef nonnull align 8 dereferenceable(40) %call25, ptr noundef nonnull align 4 dereferenceable(4) %status)
          to label %if.end40 unwind label %lpad30

if.then39:                                        ; preds = %if.end24
  store ptr null, ptr %fValueVec, align 8
  store i32 7, ptr %status, align 4
  br label %if.end56

lpad30:                                           ; preds = %new.notnull27
  %3 = landingpad { ptr, i32 }
          cleanup
  br label %eh.resume

if.end40:                                         ; preds = %new.notnull27
  store ptr %call25, ptr %fValueVec, align 8
  %call41 = tail call noundef ptr @_ZN6icu_757UMemorynwEm(i64 noundef 16) #10
  %new.isnull42 = icmp eq ptr %call41, null
  br i1 %new.isnull42, label %if.then55, label %new.notnull43

new.notnull43:                                    ; preds = %if.end40
  invoke void @_ZN6icu_7513SPUStringPoolC1ER10UErrorCode(ptr noundef nonnull align 8 dereferenceable(16) %call41, ptr noundef nonnull align 4 dereferenceable(4) %status)
          to label %new.cont51 unwind label %lpad46

new.cont51:                                       ; preds = %new.notnull43
  store ptr %call41, ptr %stringPool, align 8
  br label %if.end56

if.then55:                                        ; preds = %if.end40
  store ptr null, ptr %stringPool, align 8
  store i32 7, ptr %status, align 4
  br label %if.end56

lpad46:                                           ; preds = %new.notnull43
  %4 = landingpad { ptr, i32 }
          cleanup
  br label %eh.resume

if.end56:                                         ; preds = %new.cont51, %entry, %if.then55, %if.then39, %if.then23, %if.then7
  ret void

eh.resume:                                        ; preds = %lpad46, %lpad30, %lpad14, %lpad
  %call41.sink = phi ptr [ %call41, %lpad46 ], [ %call25, %lpad30 ], [ %call9, %lpad14 ], [ %call4, %lpad ]
  %.pn = phi { ptr, i32 } [ %4, %lpad46 ], [ %3, %lpad30 ], [ %2, %lpad14 ], [ %1, %lpad ]
  tail call void @_ZN6icu_757UMemorydlEPv(ptr noundef nonnull %call41.sink) #10
  resume { ptr, i32 } %.pn
}